target datalayout = "e-m:e-p270:32:32-p271:32:32-p272:64:64-i64:64-i128:128-f80:128-n8:16:32:64-S128"
target triple = "x86_64-pc-linux-gnu"

%struct.optstruct = type { ptr, ptr, ptr, i64, i32, i32, i32, i32, ptr, ptr, ptr }
%struct.cl_cvd = type { ptr, i32, i32, i32, ptr, ptr, ptr, i32 }

@.str.33 = private unnamed_addr constant [5 x i8] c"diff\00", align 1
@.str.222 = private unnamed_addr constant [13 x i8] c"%s-%u.script\00", align 1
@.str.223 = private unnamed_addr constant [10 x i8] c"%s.broken\00", align 1
@.str.224 = private unnamed_addr constant [37 x i8] c"Generated file is incorrect, removed\00", align 1
@.str.225 = private unnamed_addr constant [44 x i8] c"Generated file is incorrect, renamed to %s\0A\00", align 1
@.str.494 = private unnamed_addr constant [41 x i8] c"makediff: --diff requires two arguments\0A\00", align 1
@.str.495 = private unnamed_addr constant [41 x i8] c"makediff: Can't read CVD header from %s\0A\00", align 1
@.str.496 = private unnamed_addr constant [34 x i8] c"makediff: The old CVD must be %u\0A\00", align 1
@.str.497 = private unnamed_addr constant [36 x i8] c"makediff: Can't unpack CVD file %s\0A\00", align 1

; Function Attrs: nounwind uwtable
define internal i32 @makediff(ptr noundef %0) #0 {
  %2 = alloca i32, align 4
  %3 = alloca ptr, align 8
  %4 = alloca ptr, align 8
  %5 = alloca ptr, align 8
  %6 = alloca [32 x i8], align 16
  %7 = alloca [39 x i8], align 16
  %8 = alloca [32 x i8], align 16
  %9 = alloca ptr, align 8
  %10 = alloca i32, align 4
  %11 = alloca i32, align 4
  %12 = alloca i32, align 4
  store ptr %0, ptr %3, align 8
  %13 = load ptr, ptr %3, align 8
  %14 = getelementptr inbounds %struct.optstruct, ptr %13, i32 0, i32 10
  %15 = load ptr, ptr %14, align 8
  %16 = icmp ne ptr %15, null
  br i1 %16, label %18, label %17

17:                                               ; preds = %1
  call void (i32, ptr, ...) @mprintf(i32 noundef 5, ptr noundef @.str.494)
  store i32 -1, ptr %2, align 4
  br label %155

18:                                               ; preds = %1
  %19 = load ptr, ptr %3, align 8
  %20 = getelementptr inbounds %struct.optstruct, ptr %19, i32 0, i32 10
  %21 = load ptr, ptr %20, align 8
  %22 = getelementptr inbounds ptr, ptr %21, i64 0
  %23 = load ptr, ptr %22, align 8
  %24 = call ptr @cl_cvdhead(ptr noundef %23)
  store ptr %24, ptr %9, align 8
  %25 = icmp ne ptr %24, null
  br i1 %25, label %32, label %26

26:                                               ; preds = %18
  %27 = load ptr, ptr %3, align 8
  %28 = getelementptr inbounds %struct.optstruct, ptr %27, i32 0, i32 10
  %29 = load ptr, ptr %28, align 8
  %30 = getelementptr inbounds ptr, ptr %29, i64 0
  %31 = load ptr, ptr %30, align 8
  call void (i32, ptr, ...) @mprintf(i32 noundef 5, ptr noundef @.str.495, ptr noundef %31)
  store i32 -1, ptr %2, align 4
  br label %155

32:                                               ; preds = %18
  %33 = load ptr, ptr %9, align 8
  %34 = getelementptr inbounds %struct.cl_cvd, ptr %33, i32 0, i32 1
  %35 = load i32, ptr %34, align 8
  store i32 %35, ptr %11, align 4
  %36 = load ptr, ptr %9, align 8
  call void @free(ptr noundef %36) #11
  %37 = load ptr, ptr %3, align 8
  %38 = call ptr @optget(ptr noundef %37, ptr noundef @.str.33)
  %39 = getelementptr inbounds %struct.optstruct, ptr %38, i32 0, i32 2
  %40 = load ptr, ptr %39, align 8
  %41 = call ptr @cl_cvdhead(ptr noundef %40)
  store ptr %41, ptr %9, align 8
  %42 = icmp ne ptr %41, null
  br i1 %42, label %48, label %43

43:                                               ; preds = %32
  %44 = load ptr, ptr %3, align 8
  %45 = call ptr @optget(ptr noundef %44, ptr noundef @.str.33)
  %46 = getelementptr inbounds %struct.optstruct, ptr %45, i32 0, i32 2
  %47 = load ptr, ptr %46, align 8
  call void (i32, ptr, ...) @mprintf(i32 noundef 5, ptr noundef @.str.495, ptr noundef %47)
  store i32 -1, ptr %2, align 4
  br label %155

48:                                               ; preds = %32
  %49 = load ptr, ptr %9, align 8
  %50 = getelementptr inbounds %struct.cl_cvd, ptr %49, i32 0, i32 1
  %51 = load i32, ptr %50, align 8
  store i32 %51, ptr %10, align 4
  %52 = load ptr, ptr %9, align 8
  call void @free(ptr noundef %52) #11
  %53 = load i32, ptr %10, align 4
  %54 = add i32 %53, 1
  %55 = load i32, ptr %11, align 4
  %56 = icmp ne i32 %54, %55
  br i1 %56, label %57, label %60

57:                                               ; preds = %48
  %58 = load i32, ptr %11, align 4
  %59 = sub i32 %58, 1
  call void (i32, ptr, ...) @mprintf(i32 noundef 5, ptr noundef @.str.496, i32 noundef %59)
  store i32 -1, ptr %2, align 4
  br label %155

60:                                               ; preds = %48
  %61 = load ptr, ptr %3, align 8
  %62 = call ptr @createTempDir(ptr noundef %61)
  store ptr %62, ptr %4, align 8
  %63 = icmp ne ptr %62, null
  br i1 %63, label %65, label %64

64:                                               ; preds = %60
  store i32 -1, ptr %2, align 4
  br label %155

65:                                               ; preds = %60
  %66 = load ptr, ptr %3, align 8
  %67 = call ptr @optget(ptr noundef %66, ptr noundef @.str.33)
  %68 = getelementptr inbounds %struct.optstruct, ptr %67, i32 0, i32 2
  %69 = load ptr, ptr %68, align 8
  %70 = load ptr, ptr %4, align 8
  %71 = call i32 @cl_cvdunpack(ptr noundef %69, ptr noundef %70, i1 noundef zeroext true)
  %72 = icmp ne i32 0, %71
  br i1 %72, label %73, label %81

73:                                               ; preds = %65
  %74 = load ptr, ptr %3, align 8
  %75 = call ptr @optget(ptr noundef %74, ptr noundef @.str.33)
  %76 = getelementptr inbounds %struct.optstruct, ptr %75, i32 0, i32 2
  %77 = load ptr, ptr %76, align 8
  call void (i32, ptr, ...) @mprintf(i32 noundef 5, ptr noundef @.str.497, ptr noundef %77)
  %78 = load ptr, ptr %3, align 8
  %79 = load ptr, ptr %4, align 8
  call void @removeTempDir(ptr noundef %78, ptr noundef %79)
  %80 = load ptr, ptr %4, align 8
  call void @free(ptr noundef %80) #11
  store i32 -1, ptr %2, align 4
  br label %155

81:                                               ; preds = %65
  %82 = load ptr, ptr %3, align 8
  %83 = call ptr @createTempDir(ptr noundef %82)
  store ptr %83, ptr %5, align 8
  %84 = icmp ne ptr %83, null
  br i1 %84, label %86, label %85

85:                                               ; preds = %81
  store i32 -1, ptr %2, align 4
  br label %155

86:                                               ; preds = %81
  %87 = load ptr, ptr %3, align 8
  %88 = getelementptr inbounds %struct.optstruct, ptr %87, i32 0, i32 10
  %89 = load ptr, ptr %88, align 8
  %90 = getelementptr inbounds ptr, ptr %89, i64 0
  %91 = load ptr, ptr %90, align 8
  %92 = load ptr, ptr %5, align 8
  %93 = call i32 @cl_cvdunpack(ptr noundef %91, ptr noundef %92, i1 noundef zeroext true)
  %94 = icmp ne i32 0, %93
  br i1 %94, label %95, label %107

95:                                               ; preds = %86
  %96 = load ptr, ptr %3, align 8
  %97 = getelementptr inbounds %struct.optstruct, ptr %96, i32 0, i32 10
  %98 = load ptr, ptr %97, align 8
  %99 = getelementptr inbounds ptr, ptr %98, i64 0
  %100 = load ptr, ptr %99, align 8
  call void (i32, ptr, ...) @mprintf(i32 noundef 5, ptr noundef @.str.497, ptr noundef %100)
  %101 = load ptr, ptr %3, align 8
  %102 = load ptr, ptr %4, align 8
  call void @removeTempDir(ptr noundef %101, ptr noundef %102)
  %103 = load ptr, ptr %3, align 8
  %104 = load ptr, ptr %5, align 8
  call void @removeTempDir(ptr noundef %103, ptr noundef %104)
  %105 = load ptr, ptr %4, align 8
  call void @free(ptr noundef %105) #11
  %106 = load ptr, ptr %5, align 8
  call void @free(ptr noundef %106) #11
  store i32 -1, ptr %2, align 4
  br label %155

107:                                              ; preds = %86
  %108 = getelementptr inbounds [32 x i8], ptr %6, i64 0, i64 0
  %109 = load ptr, ptr %3, align 8
  %110 = getelementptr inbounds %struct.optstruct, ptr %109, i32 0, i32 10
  %111 = load ptr, ptr %110, align 8
  %112 = getelementptr inbounds ptr, ptr %111, i64 0
  %113 = load ptr, ptr %112, align 8
  %114 = getelementptr inbounds [32 x i8], ptr %8, i64 0, i64 0
  %115 = call ptr @getdbname(ptr noundef %113, ptr noundef %114, i32 noundef 32)
  %116 = load i32, ptr %11, align 4
  %117 = call i32 (ptr, i64, ptr, ...) @snprintf(ptr noundef %108, i64 noundef 32, ptr noundef @.str.222, ptr noundef %115, i32 noundef %116) #11
  %118 = load ptr, ptr %4, align 8
  %119 = load ptr, ptr %5, align 8
  %120 = getelementptr inbounds [32 x i8], ptr %6, i64 0, i64 0
  %121 = call i32 @diffdirs(ptr noundef %118, ptr noundef %119, ptr noundef %120)
  store i32 %121, ptr %12, align 4
  %122 = load ptr, ptr %3, align 8
  %123 = load ptr, ptr %4, align 8
  call void @removeTempDir(ptr noundef %122, ptr noundef %123)
  %124 = load ptr, ptr %3, align 8
  %125 = load ptr, ptr %5, align 8
  call void @removeTempDir(ptr noundef %124, ptr noundef %125)
  %126 = load ptr, ptr %4, align 8
  call void @free(ptr noundef %126) #11
  %127 = load ptr, ptr %5, align 8
  call void @free(ptr noundef %127) #11
  %128 = load i32, ptr %12, align 4
  %129 = icmp eq i32 %128, -1
  br i1 %129, label %130, label %131

130:                                              ; preds = %107
  store i32 -1, ptr %2, align 4
  br label %155

131:                                              ; preds = %107
  %132 = load ptr, ptr %3, align 8
  %133 = getelementptr inbounds [32 x i8], ptr %6, i64 0, i64 0
  %134 = load ptr, ptr %3, align 8
  %135 = call ptr @optget(ptr noundef %134, ptr noundef @.str.33)
  %136 = getelementptr inbounds %struct.optstruct, ptr %135, i32 0, i32 2
  %137 = load ptr, ptr %136, align 8
  %138 = call i32 @verifydiff(ptr noundef %132, ptr noundef %133, ptr noundef %137, ptr noundef null)
  %139 = icmp eq i32 %138, -1
  br i1 %139, label %140, label %154

140:                                              ; preds = %131
  %141 = getelementptr inbounds [39 x i8], ptr %7, i64 0, i64 0
  %142 = getelementptr inbounds [32 x i8], ptr %6, i64 0, i64 0
  %143 = call i32 (ptr, i64, ptr, ...) @snprintf(ptr noundef %141, i64 noundef 39, ptr noundef @.str.223, ptr noundef %142) #11
  %144 = getelementptr inbounds [32 x i8], ptr %6, i64 0, i64 0
  %145 = getelementptr inbounds [39 x i8], ptr %7, i64 0, i64 0
  %146 = call i32 @rename(ptr noundef %144, ptr noundef %145) #11
  %147 = icmp ne i32 %146, 0
  br i1 %147, label %148, label %151

148:                                              ; preds = %140
  %149 = getelementptr inbounds [32 x i8], ptr %6, i64 0, i64 0
  %150 = call i32 @unlink(ptr noundef %149) #11
  call void (i32, ptr, ...) @mprintf(i32 noundef 5, ptr noundef @.str.224)
  br label %153

151:                                              ; preds = %140
  %152 = getelementptr inbounds [39 x i8], ptr %7, i64 0, i64 0
  call void (i32, ptr, ...) @mprintf(i32 noundef 5, ptr noundef @.str.225, ptr noundef %152)
  br label %153

153:                                              ; preds = %151, %148
  store i32 -1, ptr %2, align 4
  br label %155

154:                                              ; preds = %131
  store i32 0, ptr %2, align 4
  br label %155

155:                                              ; preds = %154, %153, %130, %95, %85, %73, %64, %57, %43, %26, %17
  %156 = load i32, ptr %2, align 4
  ret i32 %156
}