; Function Attrs: nounwind uwtable
define internal fastcc noundef i32 @makediff(ptr noundef %0) unnamed_addr #0 {
  %2 = alloca [32 x i8], align 16
  %3 = alloca [39 x i8], align 16
  %4 = alloca [32 x i8], align 16
  %5 = getelementptr inbounds i8, ptr %0, i64 64
  %6 = load ptr, ptr %5, align 8
  %.not = icmp eq ptr %6, null
  br i1 %.not, label %7, label %8

7:                                                ; preds = %1
  tail call void (i32, ptr, ...) @mprintf(i32 noundef 5, ptr noundef nonnull @.str.494) #25
  br label %73

8:                                                ; preds = %1
  %9 = load ptr, ptr %6, align 8
  %10 = tail call ptr @cl_cvdhead(ptr noundef %9) #25
  %.not48 = icmp eq ptr %10, null
  br i1 %.not48, label %11, label %14

11:                                               ; preds = %8
  %12 = load ptr, ptr %5, align 8
  %13 = load ptr, ptr %12, align 8
  tail call void (i32, ptr, ...) @mprintf(i32 noundef 5, ptr noundef nonnull @.str.495, ptr noundef %13) #25
  br label %73

14:                                               ; preds = %8
  %15 = getelementptr inbounds i8, ptr %10, i64 8
  %16 = load i32, ptr %15, align 8
  tail call void @free(ptr noundef nonnull %10) #25
  %17 = tail call ptr @optget(ptr noundef nonnull %0, ptr noundef nonnull @.str.33) #25
  %18 = getelementptr inbounds i8, ptr %17, i64 16
  %19 = load ptr, ptr %18, align 8
  %20 = tail call ptr @cl_cvdhead(ptr noundef %19) #25
  %.not49 = icmp eq ptr %20, null
  br i1 %.not49, label %21, label %25

21:                                               ; preds = %14
  %22 = tail call ptr @optget(ptr noundef nonnull %0, ptr noundef nonnull @.str.33) #25
  %23 = getelementptr inbounds i8, ptr %22, i64 16
  %24 = load ptr, ptr %23, align 8
  tail call void (i32, ptr, ...) @mprintf(i32 noundef 5, ptr noundef nonnull @.str.495, ptr noundef %24) #25
  br label %73

25:                                               ; preds = %14
  %26 = getelementptr inbounds i8, ptr %20, i64 8
  %27 = load i32, ptr %26, align 8
  tail call void @free(ptr noundef nonnull %20) #25
  %28 = add i32 %27, 1
  %.not50 = icmp eq i32 %28, %16
  br i1 %.not50, label %31, label %29

29:                                               ; preds = %25
  %30 = add i32 %16, -1
  tail call void (i32, ptr, ...) @mprintf(i32 noundef 5, ptr noundef nonnull @.str.496, i32 noundef %30) #25
  br label %73

31:                                               ; preds = %25
  %32 = tail call ptr @createTempDir(ptr noundef nonnull %0)
  %.not51 = icmp eq ptr %32, null
  br i1 %.not51, label %73, label %33

33:                                               ; preds = %31
  %34 = tail call ptr @optget(ptr noundef nonnull %0, ptr noundef nonnull @.str.33) #25
  %35 = getelementptr inbounds i8, ptr %34, i64 16
  %36 = load ptr, ptr %35, align 8
  %37 = tail call i32 @cl_cvdunpack(ptr noundef %36, ptr noundef nonnull %32, i1 noundef zeroext true) #25
  %.not52 = icmp eq i32 %37, 0
  br i1 %.not52, label %47, label %38

38:                                               ; preds = %33
  %39 = tail call ptr @optget(ptr noundef nonnull %0, ptr noundef nonnull @.str.33) #25
  %40 = getelementptr inbounds i8, ptr %39, i64 16
  %41 = load ptr, ptr %40, align 8
  tail call void (i32, ptr, ...) @mprintf(i32 noundef 5, ptr noundef nonnull @.str.497, ptr noundef %41) #25
  %42 = tail call ptr @optget(ptr noundef nonnull %0, ptr noundef nonnull @.str) #25
  %43 = getelementptr inbounds i8, ptr %42, i64 32
  %44 = load i32, ptr %43, align 8
  %.not.i = icmp eq i32 %44, 0
  br i1 %.not.i, label %45, label %removeTempDir.exit

45:                                               ; preds = %38
  %46 = tail call i32 @cli_rmdirs(ptr noundef nonnull %32) #25
  br label %removeTempDir.exit

removeTempDir.exit:                               ; preds = %38, %45
  tail call void @free(ptr noundef nonnull %32) #25
  br label %73

47:                                               ; preds = %33
  %48 = tail call ptr @createTempDir(ptr noundef nonnull %0)
  %.not53 = icmp eq ptr %48, null
  br i1 %.not53, label %73, label %49

49:                                               ; preds = %47
  %50 = load ptr, ptr %5, align 8
  %51 = load ptr, ptr %50, align 8
  %52 = tail call i32 @cl_cvdunpack(ptr noundef %51, ptr noundef nonnull %48, i1 noundef zeroext true) #25
  %.not54 = icmp eq i32 %52, 0
  %53 = load ptr, ptr %5, align 8
  %54 = load ptr, ptr %53, align 8
  br i1 %.not54, label %56, label %55

55:                                               ; preds = %49
  tail call void (i32, ptr, ...) @mprintf(i32 noundef 5, ptr noundef nonnull @.str.497, ptr noundef %54) #25
  tail call void @removeTempDir(ptr noundef nonnull %0, ptr noundef nonnull %32)
  tail call void @removeTempDir(ptr noundef nonnull %0, ptr noundef nonnull %48)
  tail call void @free(ptr noundef nonnull %32) #25
  tail call void @free(ptr noundef nonnull %48) #25
  br label %73

56:                                               ; preds = %49
  %57 = call fastcc ptr @getdbname(ptr noundef %54, ptr noundef nonnull %4)
  %58 = call i32 (ptr, i64, ptr, ...) @snprintf(ptr noundef nonnull dereferenceable(1) %2, i64 noundef 32, ptr noundef nonnull @.str.222, ptr noundef %57, i32 noundef %16) #25
  %59 = call fastcc i32 @diffdirs(ptr noundef nonnull %32, ptr noundef nonnull %48, ptr noundef nonnull %2), !range !5
  call void @removeTempDir(ptr noundef nonnull %0, ptr noundef nonnull %32)
  call void @removeTempDir(ptr noundef nonnull %0, ptr noundef nonnull %48)
  call void @free(ptr noundef nonnull %32) #25
  call void @free(ptr noundef nonnull %48) #25
  %60 = icmp eq i32 %59, -1
  br i1 %60, label %73, label %61

61:                                               ; preds = %56
  %62 = call ptr @optget(ptr noundef nonnull %0, ptr noundef nonnull @.str.33) #25
  %63 = getelementptr inbounds i8, ptr %62, i64 16
  %64 = load ptr, ptr %63, align 8
  %65 = call fastcc i32 @verifydiff(ptr noundef nonnull %0, ptr noundef nonnull %2, ptr noundef %64, ptr noundef null), !range !5
  %66 = icmp eq i32 %65, -1
  br i1 %66, label %67, label %73

67:                                               ; preds = %61
  %68 = call i32 (ptr, i64, ptr, ...) @snprintf(ptr noundef nonnull dereferenceable(1) %3, i64 noundef 39, ptr noundef nonnull @.str.223, ptr noundef nonnull %2) #25
  %69 = call i32 @rename(ptr noundef nonnull %2, ptr noundef nonnull %3) #25
  %.not55 = icmp eq i32 %69, 0
  br i1 %.not55, label %72, label %70

70:                                               ; preds = %67
  %71 = call i32 @unlink(ptr noundef nonnull %2) #25
  call void (i32, ptr, ...) @mprintf(i32 noundef 5, ptr noundef nonnull @.str.224) #25
  br label %73

72:                                               ; preds = %67
  call void (i32, ptr, ...) @mprintf(i32 noundef 5, ptr noundef nonnull @.str.225, ptr noundef nonnull %3) #25
  br label %73

73:                                               ; preds = %61, %70, %72, %56, %47, %31, %55, %removeTempDir.exit, %29, %21, %11, %7
  %.0 = phi i32 [ -1, %29 ], [ -1, %removeTempDir.exit ], [ -1, %55 ], [ -1, %21 ], [ -1, %11 ], [ -1, %7 ], [ -1, %31 ], [ -1, %47 ], [ -1, %56 ], [ -1, %72 ], [ -1, %70 ], [ 0, %61 ]
  ret i32 %.0
}